; ModuleID = '32/1542.c'
source_filename = "32/1542.c"
target datalayout = "e-m:e-p270:32:32-p271:32:32-p272:64:64-i64:64-f80:128-n8:16:32:64-S128"
target triple = "x86_64-pc-linux-gnu"

@.str = private unnamed_addr constant [3 x i8] c"%d\00", align 1
@.str.1 = private unnamed_addr constant [3 x i8] c"%c\00", align 1
@.str.2 = private unnamed_addr constant [2 x i8] c"\0A\00", align 1

; Function Attrs: noinline nounwind uwtable
define dso_local void @jian(i8* %0, i8* %1) #0 {
  %3 = alloca i8*, align 8
  %4 = alloca i8*, align 8
  %5 = alloca i32, align 4
  %6 = alloca i32, align 4
  %7 = alloca i32, align 4
  %8 = alloca i32, align 4
  store i8* %0, i8** %3, align 8
  store i8* %1, i8** %4, align 8
  store i32 0, i32* %8, align 4
  %9 = load i8*, i8** %3, align 8
  %10 = call i64 @strlen(i8* %9) #4
  %11 = trunc i64 %10 to i32
  store i32 %11, i32* %6, align 4
  %12 = load i8*, i8** %4, align 8
  %13 = call i64 @strlen(i8* %12) #4
  %14 = trunc i64 %13 to i32
  store i32 %14, i32* %5, align 4
  store i32 0, i32* %7, align 4
  br label %15

15:                                               ; preds = %106, %2
  %16 = load i32, i32* %7, align 4
  %17 = load i32, i32* %5, align 4
  %18 = sub nsw i32 %17, 1
  %19 = icmp sle i32 %16, %18
  br i1 %19, label %20, label %109

20:                                               ; preds = %15
  %21 = load i8*, i8** %3, align 8
  %22 = load i32, i32* %6, align 4
  %23 = load i32, i32* %7, align 4
  %24 = sub nsw i32 %22, %23
  %25 = sub nsw i32 %24, 1
  %26 = sext i32 %25 to i64
  %27 = getelementptr inbounds i8, i8* %21, i64 %26
  %28 = load i8, i8* %27, align 1
  %29 = sext i8 %28 to i32
  %30 = load i8*, i8** %4, align 8
  %31 = load i32, i32* %5, align 4
  %32 = load i32, i32* %7, align 4
  %33 = sub nsw i32 %31, %32
  %34 = sub nsw i32 %33, 1
  %35 = sext i32 %34 to i64
  %36 = getelementptr inbounds i8, i8* %30, i64 %35
  %37 = load i8, i8* %36, align 1
  %38 = sext i8 %37 to i32
  %39 = load i32, i32* %8, align 4
  %40 = add nsw i32 %38, %39
  %41 = icmp sge i32 %29, %40
  br i1 %41, label %42, label %73

42:                                               ; preds = %20
  %43 = load i8*, i8** %3, align 8
  %44 = load i32, i32* %6, align 4
  %45 = load i32, i32* %7, align 4
  %46 = sub nsw i32 %44, %45
  %47 = sub nsw i32 %46, 1
  %48 = sext i32 %47 to i64
  %49 = getelementptr inbounds i8, i8* %43, i64 %48
  %50 = load i8, i8* %49, align 1
  %51 = sext i8 %50 to i32
  %52 = load i8*, i8** %4, align 8
  %53 = load i32, i32* %5, align 4
  %54 = load i32, i32* %7, align 4
  %55 = sub nsw i32 %53, %54
  %56 = sub nsw i32 %55, 1
  %57 = sext i32 %56 to i64
  %58 = getelementptr inbounds i8, i8* %52, i64 %57
  %59 = load i8, i8* %58, align 1
  %60 = sext i8 %59 to i32
  %61 = sub nsw i32 %51, %60
  %62 = load i32, i32* %8, align 4
  %63 = sub nsw i32 %61, %62
  %64 = add nsw i32 %63, 48
  %65 = trunc i32 %64 to i8
  %66 = load i8*, i8** %3, align 8
  %67 = load i32, i32* %6, align 4
  %68 = load i32, i32* %7, align 4
  %69 = sub nsw i32 %67, %68
  %70 = sub nsw i32 %69, 1
  %71 = sext i32 %70 to i64
  %72 = getelementptr inbounds i8, i8* %66, i64 %71
  store i8 %65, i8* %72, align 1
  store i32 0, i32* %8, align 4
  br label %105

73:                                               ; preds = %20
  %74 = load i8*, i8** %3, align 8
  %75 = load i32, i32* %6, align 4
  %76 = load i32, i32* %7, align 4
  %77 = sub nsw i32 %75, %76
  %78 = sub nsw i32 %77, 1
  %79 = sext i32 %78 to i64
  %80 = getelementptr inbounds i8, i8* %74, i64 %79
  %81 = load i8, i8* %80, align 1
  %82 = sext i8 %81 to i32
  %83 = add nsw i32 %82, 10
  %84 = load i8*, i8** %4, align 8
  %85 = load i32, i32* %5, align 4
  %86 = load i32, i32* %7, align 4
  %87 = sub nsw i32 %85, %86
  %88 = sub nsw i32 %87, 1
  %89 = sext i32 %88 to i64
  %90 = getelementptr inbounds i8, i8* %84, i64 %89
  %91 = load i8, i8* %90, align 1
  %92 = sext i8 %91 to i32
  %93 = sub nsw i32 %83, %92
  %94 = add nsw i32 %93, 48
  %95 = load i32, i32* %8, align 4
  %96 = sub nsw i32 %94, %95
  %97 = trunc i32 %96 to i8
  %98 = load i8*, i8** %3, align 8
  %99 = load i32, i32* %6, align 4
  %100 = load i32, i32* %7, align 4
  %101 = sub nsw i32 %99, %100
  %102 = sub nsw i32 %101, 1
  %103 = sext i32 %102 to i64
  %104 = getelementptr inbounds i8, i8* %98, i64 %103
  store i8 %97, i8* %104, align 1
  store i32 1, i32* %8, align 4
  br label %105

105:                                              ; preds = %73, %42
  br label %106

106:                                              ; preds = %105
  %107 = load i32, i32* %7, align 4
  %108 = add nsw i32 %107, 1
  store i32 %108, i32* %7, align 4
  br label %15

109:                                              ; preds = %15
  %110 = load i32, i32* %5, align 4
  store i32 %110, i32* %7, align 4
  br label %111

111:                                              ; preds = %171, %109
  %112 = load i32, i32* %7, align 4
  %113 = load i32, i32* %6, align 4
  %114 = sub nsw i32 %113, 1
  %115 = icmp sle i32 %112, %114
  br i1 %115, label %116, label %174

116:                                              ; preds = %111
  %117 = load i8*, i8** %3, align 8
  %118 = load i32, i32* %6, align 4
  %119 = load i32, i32* %7, align 4
  %120 = sub nsw i32 %118, %119
  %121 = sub nsw i32 %120, 1
  %122 = sext i32 %121 to i64
  %123 = getelementptr inbounds i8, i8* %117, i64 %122
  %124 = load i8, i8* %123, align 1
  %125 = sext i8 %124 to i32
  %126 = load i32, i32* %8, align 4
  %127 = add nsw i32 %126, 48
  %128 = icmp sge i32 %125, %127
  br i1 %128, label %129, label %149

129:                                              ; preds = %116
  %130 = load i8*, i8** %3, align 8
  %131 = load i32, i32* %6, align 4
  %132 = load i32, i32* %7, align 4
  %133 = sub nsw i32 %131, %132
  %134 = sub nsw i32 %133, 1
  %135 = sext i32 %134 to i64
  %136 = getelementptr inbounds i8, i8* %130, i64 %135
  %137 = load i8, i8* %136, align 1
  %138 = sext i8 %137 to i32
  %139 = load i32, i32* %8, align 4
  %140 = sub nsw i32 %138, %139
  %141 = trunc i32 %140 to i8
  %142 = load i8*, i8** %3, align 8
  %143 = load i32, i32* %6, align 4
  %144 = load i32, i32* %7, align 4
  %145 = sub nsw i32 %143, %144
  %146 = sub nsw i32 %145, 1
  %147 = sext i32 %146 to i64
  %148 = getelementptr inbounds i8, i8* %142, i64 %147
  store i8 %141, i8* %148, align 1
  br label %174

149:                                              ; preds = %116
  %150 = load i8*, i8** %3, align 8
  %151 = load i32, i32* %6, align 4
  %152 = load i32, i32* %7, align 4
  %153 = sub nsw i32 %151, %152
  %154 = sub nsw i32 %153, 1
  %155 = sext i32 %154 to i64
  %156 = getelementptr inbounds i8, i8* %150, i64 %155
  %157 = load i8, i8* %156, align 1
  %158 = sext i8 %157 to i32
  %159 = add nsw i32 %158, 10
  %160 = load i32, i32* %8, align 4
  %161 = sub nsw i32 %159, %160
  %162 = trunc i32 %161 to i8
  %163 = load i8*, i8** %3, align 8
  %164 = load i32, i32* %6, align 4
  %165 = load i32, i32* %7, align 4
  %166 = sub nsw i32 %164, %165
  %167 = sub nsw i32 %166, 1
  %168 = sext i32 %167 to i64
  %169 = getelementptr inbounds i8, i8* %163, i64 %168
  store i8 %162, i8* %169, align 1
  store i32 1, i32* %8, align 4
  br label %170

170:                                              ; preds = %149
  br label %171

171:                                              ; preds = %170
  %172 = load i32, i32* %7, align 4
  %173 = add nsw i32 %172, 1
  store i32 %173, i32* %7, align 4
  br label %111

174:                                              ; preds = %129, %111
  store i32 0, i32* %7, align 4
  br label %175

175:                                              ; preds = %195, %174
  %176 = load i32, i32* %7, align 4
  %177 = load i32, i32* %6, align 4
  %178 = sub nsw i32 %177, 1
  %179 = icmp sle i32 %176, %178
  br i1 %179, label %180, label %198

180:                                              ; preds = %175
  %181 = load i8*, i8** %3, align 8
  %182 = load i32, i32* %7, align 4
  %183 = sext i32 %182 to i64
  %184 = getelementptr inbounds i8, i8* %181, i64 %183
  %185 = load i8, i8* %184, align 1
  %186 = sext i8 %185 to i32
  %187 = icmp eq i32 %186, 48
  br i1 %187, label %188, label %193

188:                                              ; preds = %180
  %189 = load i8*, i8** %3, align 8
  %190 = load i32, i32* %7, align 4
  %191 = sext i32 %190 to i64
  %192 = getelementptr inbounds i8, i8* %189, i64 %191
  store i8 0, i8* %192, align 1
  br label %194

193:                                              ; preds = %180
  br label %198

194:                                              ; preds = %188
  br label %195

195:                                              ; preds = %194
  %196 = load i32, i32* %7, align 4
  %197 = add nsw i32 %196, 1
  store i32 %197, i32* %7, align 4
  br label %175

198:                                              ; preds = %193, %175
  ret void
}

; Function Attrs: nounwind readonly
declare dso_local i64 @strlen(i8*) #1

; Function Attrs: noinline nounwind uwtable
define dso_local void @main() #0 {
  %1 = alloca i32, align 4
  %2 = alloca i32, align 4
  %3 = alloca i32, align 4
  %4 = alloca [100 x [100 x i8]], align 16
  %5 = alloca [100 x [100 x i8]], align 16
  %6 = alloca [10 x i8], align 1
  %7 = bitcast [100 x [100 x i8]]* %4 to i8*
  call void @llvm.memset.p0i8.i64(i8* align 16 %7, i8 0, i64 10000, i1 false)
  %8 = bitcast [100 x [100 x i8]]* %5 to i8*
  call void @llvm.memset.p0i8.i64(i8* align 16 %8, i8 0, i64 10000, i1 false)
  %9 = call i32 (i8*, ...) @__isoc99_scanf(i8* getelementptr inbounds ([3 x i8], [3 x i8]* @.str, i64 0, i64 0), i32* %1)
  %10 = getelementptr inbounds [10 x i8], [10 x i8]* %6, i64 0, i64 0
  %11 = call i32 (i8*, ...) bitcast (i32 (...)* @gets to i32 (i8*, ...)*)(i8* %10)
  store i32 0, i32* %2, align 4
  br label %12

12:                                               ; preds = %38, %0
  %13 = load i32, i32* %2, align 4
  %14 = load i32, i32* %1, align 4
  %15 = sub nsw i32 %14, 1
  %16 = icmp sle i32 %13, %15
  br i1 %16, label %17, label %41

17:                                               ; preds = %12
  %18 = load i32, i32* %2, align 4
  %19 = sext i32 %18 to i64
  %20 = getelementptr inbounds [100 x [100 x i8]], [100 x [100 x i8]]* %4, i64 0, i64 %19
  %21 = getelementptr inbounds [100 x i8], [100 x i8]* %20, i64 0, i64 0
  %22 = call i32 (i8*, ...) bitcast (i32 (...)* @gets to i32 (i8*, ...)*)(i8* %21)
  %23 = load i32, i32* %2, align 4
  %24 = sext i32 %23 to i64
  %25 = getelementptr inbounds [100 x [100 x i8]], [100 x [100 x i8]]* %5, i64 0, i64 %24
  %26 = getelementptr inbounds [100 x i8], [100 x i8]* %25, i64 0, i64 0
  %27 = call i32 (i8*, ...) bitcast (i32 (...)* @gets to i32 (i8*, ...)*)(i8* %26)
  %28 = getelementptr inbounds [10 x i8], [10 x i8]* %6, i64 0, i64 0
  %29 = call i32 (i8*, ...) bitcast (i32 (...)* @gets to i32 (i8*, ...)*)(i8* %28)
  %30 = load i32, i32* %2, align 4
  %31 = sext i32 %30 to i64
  %32 = getelementptr inbounds [100 x [100 x i8]], [100 x [100 x i8]]* %4, i64 0, i64 %31
  %33 = getelementptr inbounds [100 x i8], [100 x i8]* %32, i64 0, i64 0
  %34 = load i32, i32* %2, align 4
  %35 = sext i32 %34 to i64
  %36 = getelementptr inbounds [100 x [100 x i8]], [100 x [100 x i8]]* %5, i64 0, i64 %35
  %37 = getelementptr inbounds [100 x i8], [100 x i8]* %36, i64 0, i64 0
  call void @jian(i8* %33, i8* %37)
  br label %38

38:                                               ; preds = %17
  %39 = load i32, i32* %2, align 4
  %40 = add nsw i32 %39, 1
  store i32 %40, i32* %2, align 4
  br label %12

41:                                               ; preds = %12
  store i32 0, i32* %2, align 4
  br label %42

42:                                               ; preds = %77, %41
  %43 = load i32, i32* %2, align 4
  %44 = load i32, i32* %1, align 4
  %45 = sub nsw i32 %44, 1
  %46 = icmp sle i32 %43, %45
  br i1 %46, label %47, label %80

47:                                               ; preds = %42
  store i32 0, i32* %3, align 4
  br label %48

48:                                               ; preds = %72, %47
  %49 = load i32, i32* %3, align 4
  %50 = icmp sle i32 %49, 99
  br i1 %50, label %51, label %75

51:                                               ; preds = %48
  %52 = load i32, i32* %2, align 4
  %53 = sext i32 %52 to i64
  %54 = getelementptr inbounds [100 x [100 x i8]], [100 x [100 x i8]]* %4, i64 0, i64 %53
  %55 = load i32, i32* %3, align 4
  %56 = sext i32 %55 to i64
  %57 = getelementptr inbounds [100 x i8], [100 x i8]* %54, i64 0, i64 %56
  %58 = load i8, i8* %57, align 1
  %59 = sext i8 %58 to i32
  %60 = icmp ne i32 %59, 0
  br i1 %60, label %61, label %71

61:                                               ; preds = %51
  %62 = load i32, i32* %2, align 4
  %63 = sext i32 %62 to i64
  %64 = getelementptr inbounds [100 x [100 x i8]], [100 x [100 x i8]]* %4, i64 0, i64 %63
  %65 = load i32, i32* %3, align 4
  %66 = sext i32 %65 to i64
  %67 = getelementptr inbounds [100 x i8], [100 x i8]* %64, i64 0, i64 %66
  %68 = load i8, i8* %67, align 1
  %69 = sext i8 %68 to i32
  %70 = call i32 (i8*, ...) @printf(i8* getelementptr inbounds ([3 x i8], [3 x i8]* @.str.1, i64 0, i64 0), i32 %69)
  br label %71

71:                                               ; preds = %61, %51
  br label %72

72:                                               ; preds = %71
  %73 = load i32, i32* %3, align 4
  %74 = add nsw i32 %73, 1
  store i32 %74, i32* %3, align 4
  br label %48

75:                                               ; preds = %48
  %76 = call i32 (i8*, ...) @printf(i8* getelementptr inbounds ([2 x i8], [2 x i8]* @.str.2, i64 0, i64 0))
  br label %77

77:                                               ; preds = %75
  %78 = load i32, i32* %2, align 4
  %79 = add nsw i32 %78, 1
  store i32 %79, i32* %2, align 4
  br label %42

80:                                               ; preds = %42
  ret void
}

; Function Attrs: argmemonly nounwind willreturn
declare void @llvm.memset.p0i8.i64(i8* nocapture writeonly, i8, i64, i1 immarg) #2

declare dso_local i32 @__isoc99_scanf(i8*, ...) #3

declare dso_local i32 @gets(...) #3

declare dso_local i32 @printf(i8*, ...) #3


!llvm.module.flags = !{!0}
!llvm.ident = !{!1}

!0 = !{i32 1, !"wchar_size", i32 4}
!1 = !{!"clang version 10.0.0-4ubuntu1 "}
